; Function Attrs: mustprogress uwtable
define void @_ZN3nix11getCacheDirB5cxx11Ev(ptr dead_on_unwind noalias writable sret(%"class.std::__cxx11::basic_string") align 8 %0) local_unnamed_addr #2 personality ptr @__gxx_personality_v0 {
  %2 = alloca %"class.std::optional", align 8
  %3 = alloca %"class.std::__cxx11::basic_string", align 8
  %4 = alloca %"class.std::allocator", align 1
  %5 = alloca %"class.std::__cxx11::basic_string", align 8
  call void @_ZNSaIcEC1Ev(ptr noundef nonnull align 1 dereferenceable(1) %4) #23
  invoke void @_ZNSt7__cxx1112basic_stringIcSt11char_traitsIcESaIcEEC2IS3_EEPKcRKS3_(ptr noundef nonnull align 8 dereferenceable(32) %3, ptr noundef nonnull @.str.6, ptr noundef nonnull align 1 dereferenceable(1) %4)
          to label %6 unwind label %45

6:                                                ; preds = %1
  invoke void @_ZN3nix6getEnvERKNSt7__cxx1112basic_stringIcSt11char_traitsIcESaIcEEE(ptr dead_on_unwind nonnull writable sret(%"class.std::optional") align 8 %2, ptr noundef nonnull align 8 dereferenceable(32) %3)
          to label %7 unwind label %47

7:                                                ; preds = %6
  %8 = load ptr, ptr %3, align 8
  %9 = getelementptr inbounds i8, ptr %3, i64 16
  %10 = icmp eq ptr %8, %9
  br i1 %10, label %_ZNKSt7__cxx1112basic_stringIcSt11char_traitsIcESaIcEE11_M_is_localEv.exit.thread.i.i, label %_ZNKSt7__cxx1112basic_stringIcSt11char_traitsIcESaIcEE11_M_is_localEv.exit.i.i

_ZNKSt7__cxx1112basic_stringIcSt11char_traitsIcESaIcEE11_M_is_localEv.exit.thread.i.i: ; preds = %7
  %11 = getelementptr inbounds i8, ptr %3, i64 8
  %12 = load i64, ptr %11, align 8
  %13 = icmp ult i64 %12, 16
  call void @llvm.assume(i1 %13)
  br label %_ZNSt7__cxx1112basic_stringIcSt11char_traitsIcESaIcEED2Ev.exit

_ZNKSt7__cxx1112basic_stringIcSt11char_traitsIcESaIcEE11_M_is_localEv.exit.i.i: ; preds = %7
  call void @_ZdlPv(ptr noundef %8) #24
  br label %_ZNSt7__cxx1112basic_stringIcSt11char_traitsIcESaIcEED2Ev.exit

_ZNSt7__cxx1112basic_stringIcSt11char_traitsIcESaIcEED2Ev.exit: ; preds = %_ZNKSt7__cxx1112basic_stringIcSt11char_traitsIcESaIcEE11_M_is_localEv.exit.thread.i.i, %_ZNKSt7__cxx1112basic_stringIcSt11char_traitsIcESaIcEE11_M_is_localEv.exit.i.i
  call void @_ZNSaIcED2Ev(ptr noundef nonnull align 1 dereferenceable(1) %3) #23
  call void @_ZNSaIcED1Ev(ptr noundef nonnull align 1 dereferenceable(1) %4) #23
  %14 = getelementptr inbounds i8, ptr %2, i64 32
  %15 = load i8, ptr %14, align 8
  %16 = and i8 %15, 1
  %.not = icmp eq i8 %16, 0
  br i1 %.not, label %18, label %17

17:                                               ; preds = %_ZNSt7__cxx1112basic_stringIcSt11char_traitsIcESaIcEED2Ev.exit
  invoke void @_ZNSt7__cxx1112basic_stringIcSt11char_traitsIcESaIcEEC2ERKS4_(ptr noundef nonnull align 8 dereferenceable(32) %0, ptr noundef nonnull align 8 dereferenceable(32) %2)
          to label %.thread unwind label %50

18:                                               ; preds = %_ZNSt7__cxx1112basic_stringIcSt11char_traitsIcESaIcEED2Ev.exit
  %19 = load atomic i8, ptr @_ZGVZN3nix7getHomeB5cxx11EvE7homeDirB5cxx11 acquire, align 8, !noalias !5
  %20 = icmp eq i8 %19, 0
  br i1 %20, label %21, label %26, !prof !4

21:                                               ; preds = %18
  %22 = call i32 @__cxa_guard_acquire(ptr nonnull @_ZGVZN3nix7getHomeB5cxx11EvE7homeDirB5cxx11) #23, !noalias !5
  %.not.i = icmp eq i32 %22, 0
  br i1 %.not.i, label %26, label %23

23:                                               ; preds = %21
  invoke fastcc void @"_ZZN3nix7getHomeB5cxx11EvENK3$_0clB5cxx11Ev"()
          to label %24 unwind label %27, !noalias !5

24:                                               ; preds = %23
  %25 = call i32 @__cxa_atexit(ptr nonnull @_ZNSt7__cxx1112basic_stringIcSt11char_traitsIcESaIcEED2Ev, ptr nonnull @_ZZN3nix7getHomeB5cxx11EvE7homeDirB5cxx11, ptr nonnull @__dso_handle) #23, !noalias !5
  call void @__cxa_guard_release(ptr nonnull @_ZGVZN3nix7getHomeB5cxx11EvE7homeDirB5cxx11) #23, !noalias !5
  br label %26

26:                                               ; preds = %24, %21, %18
  invoke void @_ZNSt7__cxx1112basic_stringIcSt11char_traitsIcESaIcEEC2ERKS4_(ptr noundef nonnull align 8 dereferenceable(32) %5, ptr noundef nonnull align 8 dereferenceable(32) @_ZZN3nix7getHomeB5cxx11EvE7homeDirB5cxx11)
          to label %_ZN3nix7getHomeB5cxx11Ev.exit unwind label %50

27:                                               ; preds = %23
  %28 = landingpad { ptr, i32 }
          cleanup
  call void @__cxa_guard_abort(ptr nonnull @_ZGVZN3nix7getHomeB5cxx11EvE7homeDirB5cxx11) #23, !noalias !5
  br label %.body

_ZN3nix7getHomeB5cxx11Ev.exit:                    ; preds = %26
  invoke void @_ZStplIcSt11char_traitsIcESaIcEENSt7__cxx1112basic_stringIT_T0_T1_EEOS8_PKS5_(ptr dead_on_unwind writable sret(%"class.std::__cxx11::basic_string") align 8 %0, ptr noundef nonnull align 8 dereferenceable(32) %5, ptr noundef nonnull @.str.7)
          to label %29 unwind label %52

29:                                               ; preds = %_ZN3nix7getHomeB5cxx11Ev.exit
  %30 = load ptr, ptr %5, align 8
  %31 = getelementptr inbounds i8, ptr %5, i64 16
  %32 = icmp eq ptr %30, %31
  br i1 %32, label %_ZNKSt7__cxx1112basic_stringIcSt11char_traitsIcESaIcEE11_M_is_localEv.exit.thread.i.i12, label %_ZNKSt7__cxx1112basic_stringIcSt11char_traitsIcESaIcEE11_M_is_localEv.exit.i.i11

_ZNKSt7__cxx1112basic_stringIcSt11char_traitsIcESaIcEE11_M_is_localEv.exit.thread.i.i12: ; preds = %29
  %33 = getelementptr inbounds i8, ptr %5, i64 8
  %34 = load i64, ptr %33, align 8
  %35 = icmp ult i64 %34, 16
  call void @llvm.assume(i1 %35)
  br label %_ZNSt7__cxx1112basic_stringIcSt11char_traitsIcESaIcEED2Ev.exit13

_ZNKSt7__cxx1112basic_stringIcSt11char_traitsIcESaIcEE11_M_is_localEv.exit.i.i11: ; preds = %29
  call void @_ZdlPv(ptr noundef %30) #24
  br label %_ZNSt7__cxx1112basic_stringIcSt11char_traitsIcESaIcEED2Ev.exit13

_ZNSt7__cxx1112basic_stringIcSt11char_traitsIcESaIcEED2Ev.exit13: ; preds = %_ZNKSt7__cxx1112basic_stringIcSt11char_traitsIcESaIcEE11_M_is_localEv.exit.thread.i.i12, %_ZNKSt7__cxx1112basic_stringIcSt11char_traitsIcESaIcEE11_M_is_localEv.exit.i.i11
  call void @_ZNSaIcED2Ev(ptr noundef nonnull align 1 dereferenceable(1) %5) #23
  br label %.thread

.thread:                                          ; preds = %17, %_ZNSt7__cxx1112basic_stringIcSt11char_traitsIcESaIcEED2Ev.exit13
  %36 = load i8, ptr %14, align 8
  %37 = and i8 %36, 1
  %.not.i.i.i.i = icmp eq i8 %37, 0
  br i1 %.not.i.i.i.i, label %_ZNSt8optionalINSt7__cxx1112basic_stringIcSt11char_traitsIcESaIcEEEED2Ev.exit, label %38

38:                                               ; preds = %.thread
  store i8 0, ptr %14, align 8
  %39 = load ptr, ptr %2, align 8
  %40 = getelementptr inbounds i8, ptr %2, i64 16
  %41 = icmp eq ptr %39, %40
  br i1 %41, label %_ZNKSt7__cxx1112basic_stringIcSt11char_traitsIcESaIcEE11_M_is_localEv.exit.thread.i.i.i.i.i.i.i, label %_ZNKSt7__cxx1112basic_stringIcSt11char_traitsIcESaIcEE11_M_is_localEv.exit.i.i.i.i.i.i.i

_ZNKSt7__cxx1112basic_stringIcSt11char_traitsIcESaIcEE11_M_is_localEv.exit.thread.i.i.i.i.i.i.i: ; preds = %38
  %42 = getelementptr inbounds i8, ptr %2, i64 8
  %43 = load i64, ptr %42, align 8
  %44 = icmp ult i64 %43, 16
  call void @llvm.assume(i1 %44)
  br label %_ZNSt22_Optional_payload_baseINSt7__cxx1112basic_stringIcSt11char_traitsIcESaIcEEEE10_M_destroyEv.exit.i.i.i.i

_ZNKSt7__cxx1112basic_stringIcSt11char_traitsIcESaIcEE11_M_is_localEv.exit.i.i.i.i.i.i.i: ; preds = %38
  call void @_ZdlPv(ptr noundef %39) #24
  br label %_ZNSt22_Optional_payload_baseINSt7__cxx1112basic_stringIcSt11char_traitsIcESaIcEEEE10_M_destroyEv.exit.i.i.i.i

_ZNSt22_Optional_payload_baseINSt7__cxx1112basic_stringIcSt11char_traitsIcESaIcEEEE10_M_destroyEv.exit.i.i.i.i: ; preds = %_ZNKSt7__cxx1112basic_stringIcSt11char_traitsIcESaIcEE11_M_is_localEv.exit.i.i.i.i.i.i.i, %_ZNKSt7__cxx1112basic_stringIcSt11char_traitsIcESaIcEE11_M_is_localEv.exit.thread.i.i.i.i.i.i.i
  call void @_ZNSaIcED2Ev(ptr noundef nonnull align 1 dereferenceable(1) %2) #23
  br label %_ZNSt8optionalINSt7__cxx1112basic_stringIcSt11char_traitsIcESaIcEEEED2Ev.exit

_ZNSt8optionalINSt7__cxx1112basic_stringIcSt11char_traitsIcESaIcEEEED2Ev.exit: ; preds = %.thread, %_ZNSt22_Optional_payload_baseINSt7__cxx1112basic_stringIcSt11char_traitsIcESaIcEEEE10_M_destroyEv.exit.i.i.i.i
  ret void

45:                                               ; preds = %1
  %46 = landingpad { ptr, i32 }
          cleanup
  br label %49

47:                                               ; preds = %6
  %48 = landingpad { ptr, i32 }
          cleanup
  call void @_ZNSt7__cxx1112basic_stringIcSt11char_traitsIcESaIcEED2Ev(ptr noundef nonnull align 8 dereferenceable(32) %3) #23
  br label %49

49:                                               ; preds = %47, %45
  %.pn = phi { ptr, i32 } [ %48, %47 ], [ %46, %45 ]
  call void @_ZNSaIcED1Ev(ptr noundef nonnull align 1 dereferenceable(1) %4) #23
  br label %54

50:                                               ; preds = %26, %17
  %51 = landingpad { ptr, i32 }
          cleanup
  br label %.body

52:                                               ; preds = %_ZN3nix7getHomeB5cxx11Ev.exit
  %53 = landingpad { ptr, i32 }
          cleanup
  call void @_ZNSt7__cxx1112basic_stringIcSt11char_traitsIcESaIcEED2Ev(ptr noundef nonnull align 8 dereferenceable(32) %5) #23
  br label %.body

.body:                                            ; preds = %50, %27, %52
  %.pn8 = phi { ptr, i32 } [ %53, %52 ], [ %51, %50 ], [ %28, %27 ]
  call void @_ZNSt8optionalINSt7__cxx1112basic_stringIcSt11char_traitsIcESaIcEEEED2Ev(ptr noundef nonnull align 8 dereferenceable(40) %2) #23
  br label %54

54:                                               ; preds = %.body, %49
  %.pn8.pn = phi { ptr, i32 } [ %.pn8, %.body ], [ %.pn, %49 ]
  resume { ptr, i32 } %.pn8.pn
}